target datalayout = "e-m:e-p270:32:32-p271:32:32-p272:64:64-i64:64-i128:128-f80:128-n8:16:32:64-S128"
target triple = "x86_64-pc-linux-gnu"

%struct.archive_read_disk = type { %struct.archive, ptr, i8, i8, ptr, ptr, ptr, ptr, i32, ptr, ptr, ptr, ptr, ptr, ptr, ptr, ptr, ptr, ptr, ptr }
%struct.archive = type { i32, i32, ptr, i32, ptr, i32, i32, ptr, %struct.archive_string, ptr, i32, i32, ptr, ptr, i64, i64, i64, i8, i64 }
%struct.archive_string = type { ptr, i64, i64 }

@.str.9 = private unnamed_addr constant [31 x i8] c"archive_read_disk_set_matching\00", align 1

; Function Attrs: nounwind uwtable
define dso_local i32 @archive_read_disk_set_matching(ptr noundef %0, ptr noundef %1, ptr noundef %2, ptr noundef %3) #0 {
  %5 = alloca i32, align 4
  %6 = alloca ptr, align 8
  %7 = alloca ptr, align 8
  %8 = alloca ptr, align 8
  %9 = alloca ptr, align 8
  %10 = alloca ptr, align 8
  %11 = alloca i32, align 4
  store ptr %0, ptr %6, align 8
  store ptr %1, ptr %7, align 8
  store ptr %2, ptr %8, align 8
  store ptr %3, ptr %9, align 8
  %12 = load ptr, ptr %6, align 8
  store ptr %12, ptr %10, align 8
  br label %13

13:                                               ; preds = %4
  %14 = load ptr, ptr %6, align 8
  %15 = call i32 @__archive_check_magic(ptr noundef %14, i32 noundef 195932357, i32 noundef 32767, ptr noundef @.str.9)
  store i32 %15, ptr %11, align 4
  %16 = load i32, ptr %11, align 4
  %17 = icmp eq i32 %16, -30
  br i1 %17, label %18, label %19

18:                                               ; preds = %13
  store i32 -30, ptr %5, align 4
  br label %30

19:                                               ; preds = %13
  br label %20

20:                                               ; preds = %19
  %21 = load ptr, ptr %7, align 8
  %22 = load ptr, ptr %10, align 8
  %23 = getelementptr inbounds %struct.archive_read_disk, ptr %22, i32 0, i32 17
  store ptr %21, ptr %23, align 8
  %24 = load ptr, ptr %8, align 8
  %25 = load ptr, ptr %10, align 8
  %26 = getelementptr inbounds %struct.archive_read_disk, ptr %25, i32 0, i32 18
  store ptr %24, ptr %26, align 8
  %27 = load ptr, ptr %9, align 8
  %28 = load ptr, ptr %10, align 8
  %29 = getelementptr inbounds %struct.archive_read_disk, ptr %28, i32 0, i32 19
  store ptr %27, ptr %29, align 8
  store i32 0, ptr %5, align 4
  br label %30

30:                                               ; preds = %20, %18
  %31 = load i32, ptr %5, align 4
  ret i32 %31
}