; Function Attrs: nounwind uwtable
define dso_local range(i32 -30, 1) i32 @archive_read_disk_set_matching(ptr noundef %0, ptr noundef %1, ptr noundef %2, ptr noundef %3) local_unnamed_addr #0 {
  %5 = tail call i32 @__archive_check_magic(ptr noundef %0, i32 noundef 195932357, i32 noundef 32767, ptr noundef nonnull @.str.9) #17
  %6 = icmp eq i32 %5, -30
  br i1 %6, label %11, label %7

7:                                                ; preds = %4
  %8 = getelementptr inbounds nuw i8, ptr %0, i64 264
  store ptr %1, ptr %8, align 8
  %9 = getelementptr inbounds nuw i8, ptr %0, i64 272
  store ptr %2, ptr %9, align 8
  %10 = getelementptr inbounds nuw i8, ptr %0, i64 280
  store ptr %3, ptr %10, align 8
  br label %11

11:                                               ; preds = %4, %7
  %.0 = phi i32 [ 0, %7 ], [ -30, %4 ]
  ret i32 %.0
}